; Function Attrs: mustprogress uwtable
define void @_ZN22ColumnPreferencesFrame27on_deleteToolButton_clickedEv(ptr nocapture noundef nonnull readonly align 8 dereferenceable(72) %0) local_unnamed_addr #0 align 2 personality ptr @__gxx_personality_v0 {
  %2 = alloca %class.QList.5, align 8
  %3 = alloca %class.QModelIndex, align 8
  %4 = alloca %class.QList.5, align 8
  %5 = alloca %class.QModelIndex, align 8
  %6 = getelementptr inbounds i8, ptr %0, i64 40
  %7 = load ptr, ptr %6, align 8
  %8 = getelementptr inbounds i8, ptr %7, i64 8
  %9 = load ptr, ptr %8, align 8
  %10 = tail call noundef ptr @_ZNK17QAbstractItemView14selectionModelEv(ptr noundef nonnull align 8 dereferenceable(40) %9)
  call void @_ZNK19QItemSelectionModel15selectedIndexesEv(ptr dead_on_unwind nonnull writable sret(%class.QList.5) align 8 %2, ptr noundef nonnull align 8 dereferenceable(16) %10)
  %11 = getelementptr inbounds i8, ptr %2, i64 16
  %12 = load i64, ptr %11, align 8
  %13 = icmp sgt i64 %12, 0
  %14 = load ptr, ptr %2, align 8
  %.not.i.i.i = icmp eq ptr %14, null
  br i1 %.not.i.i.i, label %_ZN5QListI11QModelIndexED2Ev.exit, label %_ZN17QArrayDataPointerI11QModelIndexE5derefEv.exit.i.i

_ZN17QArrayDataPointerI11QModelIndexE5derefEv.exit.i.i: ; preds = %1
  %15 = atomicrmw sub ptr %14, i32 1 seq_cst, align 4
  %.not.i.i = icmp eq i32 %15, 1
  br i1 %.not.i.i, label %16, label %_ZN5QListI11QModelIndexED2Ev.exit

16:                                               ; preds = %_ZN17QArrayDataPointerI11QModelIndexE5derefEv.exit.i.i
  %17 = load ptr, ptr %2, align 8
  call void @_ZN10QArrayData10deallocateEPS_xx(ptr noundef %17, i64 noundef 24, i64 noundef 8) #11
  br label %_ZN5QListI11QModelIndexED2Ev.exit

_ZN5QListI11QModelIndexED2Ev.exit:                ; preds = %1, %_ZN17QArrayDataPointerI11QModelIndexE5derefEv.exit.i.i, %16
  br i1 %13, label %18, label %37

18:                                               ; preds = %_ZN5QListI11QModelIndexED2Ev.exit
  %19 = load ptr, ptr %6, align 8
  %20 = getelementptr inbounds i8, ptr %19, i64 8
  %21 = load ptr, ptr %20, align 8
  %22 = call noundef ptr @_ZNK17QAbstractItemView14selectionModelEv(ptr noundef nonnull align 8 dereferenceable(40) %21)
  call void @_ZNK19QItemSelectionModel15selectedIndexesEv(ptr dead_on_unwind nonnull writable sret(%class.QList.5) align 8 %4, ptr noundef nonnull align 8 dereferenceable(16) %22)
  %23 = getelementptr inbounds i8, ptr %4, i64 8
  %24 = load ptr, ptr %23, align 8
  call void @llvm.memcpy.p0.p0.i64(ptr noundef nonnull align 8 dereferenceable(24) %3, ptr noundef nonnull align 8 dereferenceable(24) %24, i64 24, i1 false)
  %25 = load ptr, ptr %4, align 8
  %.not.i.i.i1 = icmp eq ptr %25, null
  br i1 %.not.i.i.i1, label %_ZN5QListI11QModelIndexED2Ev.exit4, label %_ZN17QArrayDataPointerI11QModelIndexE5derefEv.exit.i.i2

_ZN17QArrayDataPointerI11QModelIndexE5derefEv.exit.i.i2: ; preds = %18
  %26 = atomicrmw sub ptr %25, i32 1 seq_cst, align 4
  %.not.i.i3 = icmp eq i32 %26, 1
  br i1 %.not.i.i3, label %27, label %_ZN5QListI11QModelIndexED2Ev.exit4

27:                                               ; preds = %_ZN17QArrayDataPointerI11QModelIndexE5derefEv.exit.i.i2
  %28 = load ptr, ptr %4, align 8
  call void @_ZN10QArrayData10deallocateEPS_xx(ptr noundef %28, i64 noundef 24, i64 noundef 8) #11
  br label %_ZN5QListI11QModelIndexED2Ev.exit4

_ZN5QListI11QModelIndexED2Ev.exit4:               ; preds = %18, %_ZN17QArrayDataPointerI11QModelIndexE5derefEv.exit.i.i2, %27
  %29 = getelementptr inbounds i8, ptr %0, i64 48
  %30 = load ptr, ptr %29, align 8
  %31 = getelementptr inbounds i8, ptr %0, i64 56
  %32 = load ptr, ptr %31, align 8
  %33 = load ptr, ptr %32, align 8
  %34 = getelementptr inbounds i8, ptr %33, i64 400
  %35 = load ptr, ptr %34, align 8
  call void %35(ptr dead_on_unwind nonnull writable sret(%class.QModelIndex) align 8 %5, ptr noundef nonnull align 8 dereferenceable(16) %32, ptr noundef nonnull align 8 dereferenceable(24) %3)
  %36 = load i32, ptr %5, align 8
  call void @_ZN15ColumnListModel11deleteEntryEi(ptr noundef nonnull align 8 dereferenceable(16) %30, i32 noundef %36)
  br label %37

37:                                               ; preds = %_ZN5QListI11QModelIndexED2Ev.exit4, %_ZN5QListI11QModelIndexED2Ev.exit
  ret void
}